(dp1
S'output'
p2
S"<type 'exceptions.ImportError'> Cannot import module 'applications.weather.modules.MySQLdb'"
p3
sS'layer'
p4
S'/home/chrizandr/Downloads/web2py/applications/weather/controllers/default.py'
p5
sS'code'
p6
S'\'\'\'--------------------------------------------------------------------------------------------------------------------------------------------------------------------------------\'\'\'\n\n\'\'\'Built in functions\'\'\'\ndef index():\n    import datetime\n    import MySQLdb\n    y=str(datetime.datetime.now().year)\n    sql=\'select * from %s where datetime = (select max(datetime) from %s);\'%(dbselect(y),dbselect(y))\n    db=MySQLdb.connect("localhost","root","iiits@123","weather")\n    cursor=db.cursor()\n    cursor.execute(sql)\n    a=cursor.fetchall()\n    x=a[0]\n    dattime=str(x[0])   \n    dat=dattime.split()[0]\n    k=dat.split(\'-\')\n    dat=k[2]+"-"+k[1]+"-"+k[0]\n    tim=dattime.split()[1]\n    stemp=str(x[1])\n    swind=str(x[3])\n    spress=str(x[4])\n    shumid=str(x[2])\n    srain=str(x[5])\n    return locals()\n    \n\ndef error():\n    s=\'\'\n    link=\'\'\n    if request.args[0]==\'1\':\n        s=\'date\'\n        l=URL(\'day\')\n    elif request.args[0]==\'2\':\n        s=\'month\'\n        l=URL(\'month\')\n    elif request.args[0]==\'3\':\n        s=\'year\'\n        l=URL(\'year\')\n    else:\n        return "Error: This page is not available"\n    return locals()\n\ndef user():\n    return dict(form=auth())\n\n\n@cache.action()\ndef download():\n    return response.download(request, db)\n\n\ndef call():\n    return service()\n\ndef test():\n    import MySQLdb\n    a=\'2014-03-09\'\n    b=1\n    s=datakey(int(b))\n    sql="select avg(%s) from weath14 where date(datetime)=\'%s\' group by hour(datetime);"%(s,str(a))\n    db=MySQLdb.connect("localhost","root","deepdeepu27","weather")\n    cursor=db.cursor()\n    cursor.execute(sql)\n    a=cursor.fetchall()\n    i=0\n    meandata=[]\n    for x in a:\n        m=str(x[0])\n        meandata.append([i,float(m)])\n        i=i+1\n    return locals()\n\'\'\'--------------------------------------------------------------------------------------------------------------------------------------------------------------------------------\'\'\'\n\n\'\'\'--------------------------------------------------------------------------------------------------------------------------------------------------------------------------------\'\'\'\n\n\'\'\'Selectors for pre formatting\'\'\'\n\ndef monthkey(a):\n    if a==1:\n        return \'January\'\n    elif a==2:\n        return \'February\'\n    elif a==3:\n        return \'March\'\n    elif a==4:\n        return \'April\'\n    elif a==5:\n        return \'May\'\n    elif a==6:\n        return \'June\'\n    elif a==7:\n        return \'July\'\n    elif a==8:\n        return \'August\'\n    elif a==9:\n        return \'September\'\n    elif a==10:\n        return \'October\'\n    elif a==11:\n        return \'November\'\n    elif a==12:\n        return \'December\'\n\ndef yearkey(n):\n    if n==1:\n        return 2014\n    elif n==2:\n        return 2015\n\ndef yearkey2(n):\n    if n==1:\n        return 2013\n    elif n==2:\n        return 2014\n    elif n==3:\n        return 2015\n\ndef dbselect(a):\n    if a==\'2014\' or a==\'2013\':\n        return \'weath14\'\n    elif a==\'2015\':\n        return \'weath15\'\n    elif a==\'2016\':\n        return \'weath15\'\n\ndef datakey(n):\n    if n==1:\n        return "temp"\n    elif n==2:\n        return "press"\n    elif n==3:\n        return "wind"\n    elif n==4:\n        return "humid"\n    elif n==5:\n        return "rain"\n\ndef label(n):\n    if n==1:\n        return "Temperature"\n    elif n==2:\n        return "Pressure"\n    elif n==3:\n        return "Wind"\n    elif n==4:\n        return "Humidity"\n    elif n==5:\n        return "Rain"\n\ndef labeldata(n):\n    if n==1:\n        return "Mean"\n    elif n==2:\n        return "Maximum"\n    elif n==3:\n        return "Minimum"\n    elif n==4:\n        return "Standard Deviation"\n    elif n==5:\n        return "Median"\n\n\'\'\'--------------------------------------------------------------------------------------------------------------------------------------------------------------------------------\'\'\'\n\n\'\'\'--------------------------------------------------------------------------------------------------------------------------------------------------------------------------------\'\'\'\n\n\'\'\'Database selector\'\'\'\n\ndef select(sql):\n    import MySQLdb\n    db=MySQLdb.connect("localhost","root","iiits@123","weather")\n    cursor=db.cursor()\n    cursor.execute(sql)\n    a=cursor.fetchall()\n    i=0\n    meandata=[]\n    for x in a:\n        m=str(x[0])\n        meandata.append([i,float(m)])\n        i=i+1\n    return meandata\n\n\'\'\'--------------------------------------------------------------------------------------------------------------------------------------------------------------------------------\'\'\'\n\ndef history():\n    \n    formd=SQLFORM.factory(Field("Date",\'date\'),Field(\'Data\',requires=IS_EMPTY_OR(IS_IN_SET([(1,\'Mean\'), (2,\'Max\'), (3,\'Min\'), (4,\'Standard Deviation\'), (5,\'Median\')]))))\n    formd.process(formname=\'formd\')\n    \n    formm=SQLFORM.factory(Field("Month",requires=IS_IN_SET([(1,\'January\'), (2,\'February\'), (3,\'March\'), (4,\'April\'), (5,\'May\'),(6,\'June\'), (7,\'July\'), (8,\'August\'), (9,\'September\'), (10,\'October\'),(11,\'November\'),(12,\'December\')])),Field(\'Year\',requires=IS_IN_SET([(1,\'2014\'), (2,\'2015\')])),Field(\'Data\',requires=IS_IN_SET([(1,\'Mean\'), (2,\'Maximum\'), (3,\'Minimum\'), (4,\'Standard Deviation\'), (5,\'Median\')])))\n    formm.process(formname=\'formm\')\n\n    formy=SQLFORM.factory(Field("Year",requires=IS_IN_SET([(1,\'2013\'), (2,\'2014\'), (3,\'2015\')])),Field(\'Data\',requires=IS_IN_SET([(1,\'Mean\'), (2,\'Maximum\'), (3,\'Minimum\'), (4,\'Standard Deviation\'), (5,\'Median\')])))\n    formy.process(formname=\'formy\')\n\n    if formd.accepted:\n            redirect(URL(\'dayres\',args=[formd.vars.Date,formd.vars.Data]))\n    if formy.accepted:\n            redirect(URL(\'yearres\',args=[formy.vars.Data,yearkey2(int(formy.vars.Year))]))\n    if formm.accepted:\n            redirect(URL(\'monthres\',args=[formm.vars.Month,formm.vars.Data,yearkey(int(formm.vars.Year))]))\n    return locals()\n\n\n\'\'\'--------------------------------------------------------------------------------------------------------------------------------------------------------------------------------\'\'\'\n\n\'\'\'Main for Day\'\'\'\n\ndef day():\n    form=SQLFORM.factory(Field("Date",\'date\'),Field(\'Data\',requires=IS_EMPTY_OR(IS_IN_SET([(1,\'Mean\'), (2,\'Max\'), (3,\'Min\'), (4,\'Standard Deviation\'), (5,\'Median\')])))).process()\n    if form.accepted:\n            redirect(URL(\'dayres\',args=[form.vars.Date,form.vars.Data]))\n    return locals()\n\ndef dayres():\n    Date=request.args[0]\n    d=Date.split("-")\n    Date=d[2]+"-"+d[1]+"-"+d[0]\n    s=""\n    if request.args[1]==\'1\':\n        try:\n            tempdata=str(meancalcday(request.args[0],1))\n            pressdata=str(meancalcday(request.args[0],2))\n            winddata=str(meancalcday(request.args[0],3))\n            humiddata=str(meancalcday(request.args[0],4))\n            raindata=str(meancalcday(request.args[0],5))\n        except AttributeError:\n            redirect(URL(\'error\',args=[1]))\n        if len(tempdata)<3:\n            redirect(URL(\'error\',args=[1]))\n        s=labeldata(int(request.args[1]))\n    elif request.args[1]==\'2\':\n        try:\n            tempdata=str(maxcalcday(request.args[0],1))\n            pressdata=str(maxcalcday(request.args[0],2))\n            winddata=str(maxcalcday(request.args[0],3))\n            humiddata=str(maxcalcday(request.args[0],4))\n            raindata=str(maxcalcday(request.args[0],5))\n        except AttributeError:\n            redirect(URL(\'error\',args=[1]))\n        if len(tempdata)<3:\n            redirect(URL(\'error\',args=[1]))\n        s=labeldata(int(request.args[1]))\n    elif request.args[1]==\'3\':\n        try:\n            tempdata=str(mincalcday(request.args[0],1))\n            pressdata=str(mincalcday(request.args[0],2))\n            winddata=str(mincalcday(request.args[0],3))\n            humiddata=str(mincalcday(request.args[0],4))\n            raindata=str(mincalcday(request.args[0],5))\n        except AttributeError:\n            redirect(URL(\'error\',args=[1]))\n        if len(tempdata)<3:\n            redirect(URL(\'error\',args=[1]))\n        s=labeldata(int(request.args[1]))\n    elif request.args[1]==\'4\':\n        try:\n            tempdata=str(devcalcday(request.args[0],1))\n            pressdata=str(devcalcday(request.args[0],2))\n            winddata=str(devcalcday(request.args[0],3))\n            humiddata=str(devcalcday(request.args[0],4))\n            raindata=str(devcalcday(request.args[0],5))\n        except AttributeError:\n            redirect(URL(\'error\',args=[1]))\n        if len(tempdata)<3:\n            redirect(URL(\'error\',args=[1]))\n        s=labeldata(int(request.args[1]))\n    elif request.args[1]==\'5\':\n        try:\n            tempdata=str(medcalcday(request.args[0],1))\n            pressdata=str(medcalcday(request.args[0],2))\n            winddata=str(medcalcday(request.args[0],3))\n            humiddata=str(medcalcday(request.args[0],4))\n            raindata=str(medcalcday(request.args[0],5))\n        except AttributeError:\n            redirect(URL(\'error\',args=[1]))\n        if len(tempdata)<3:\n            redirect(URL(\'error\',args=[1]))\n        s=labeldata(int(request.args[1]))\n    else:\n        return "Error 404"\n    return locals()\n\n\n\'\'\'--------------------------------------------------------------------------------------------------------------------------------------------------------------------------------\'\'\'\n\n\'\'\'Day Calculators\'\'\'\n\ndef meancalcday(a,b):\n    s=datakey(int(b))\n    k=dbselect(a[0:4])\n    sql="select avg(%s) from %s where date(datetime)=\'%s\' group by hour(datetime);"%(s,k,str(a))\n    return select(sql)\n\ndef maxcalcday(a,b):\n    k=dbselect(a[0:4])\n    s=datakey(int(b))\n    sql="select max(%s) from %s where date(datetime)=\'%s\' group by hour(datetime);"%(s,k,str(a))\n    return select(sql)\n\ndef mincalcday(a,b):\n    s=datakey(int(b))\n    k=dbselect(a[0:4])\n    sql="select min(%s) from %s where date(datetime)=\'%s\' group by hour(datetime);"%(s,k,str(a))\n    return select(sql)\n\ndef medcalcday(a,b):\n    s=datakey(int(b))\n    k=dbselect(a[0:4])\n    sql="select %s from %s where date(datetime)=\'%s\' and minute(datetime)=\'30\' group by hour(datetime);"%(s,k,str(a))\n    return select(sql)\n\ndef devcalcday(a,b):\n    k=dbselect(a[0:4])\n    s=datakey(int(b))\n    sql="select std(%s) from %s where date(datetime)=\'%s\' group by hour(datetime);"%(s,k,str(a))\n    return select(sql)\n\n\'\'\'--------------------------------------------------------------------------------------------------------------------------------------------------------------------------------\'\'\'\n\n\'\'\'--------------------------------------------------------------------------------------------------------------------------------------------------------------------------------\'\'\'\n\n\'\'\'Main for Month\'\'\'\n\ndef month():\n    form=SQLFORM.factory(Field("Month",requires=IS_IN_SET([(1,\'January\'), (2,\'February\'), (3,\'March\'), (4,\'April\'), (5,\'May\'),(6,\'June\'), (7,\'July\'), (8,\'August\'), (9,\'September\'), (10,\'October\'),(11,\'November\'),(12,\'December\')])),Field(\'Year\',requires=IS_IN_SET([(1,\'2014\'), (2,\'2015\')])),Field(\'Data\',requires=IS_IN_SET([(1,\'Mean\'), (2,\'Maximum\'), (3,\'Minimum\'), (4,\'Standard Deviation\'), (5,\'Median\')]))).process()\n    if form.accepted:\n        redirect(URL(\'monthres\',args=[form.vars.Month,form.vars.Data,yearkey(int(form.vars.Year))]))\n    return locals()\n\n\ndef monthres():\n    s=labeldata(int(request.args[1]))\n    month=monthkey(int(request.args[0]))\n    year=request.args[2]\n    if request.args[1]==\'1\':    \n        try:\n            tempdata=meanmonth(1,request.args[0],request.args[2])\n            pressdata=meanmonth(2,request.args[0],request.args[2])\n            winddata=meanmonth(3,request.args[0],request.args[2])\n            humiddata=meanmonth(4,request.args[0],request.args[2])\n            raindata=meanmonth(5,request.args[0],request.args[2])\n        except AttributeError:\n            redirect(URL(\'error\',args=[\'2\']))\n        if len(tempdata)<3:\n            redirect(URL(\'error\',args=[2]))\n    elif request.args[1]==\'2\':    \n        try:\n            tempdata=maxmonth(1,request.args[0],request.args[2])\n            pressdata=maxmonth(2,request.args[0],request.args[2])\n            winddata=maxmonth(3,request.args[0],request.args[2])\n            humiddata=maxmonth(4,request.args[0],request.args[2])\n            raindata=maxmonth(5,request.args[0],request.args[2])\n        except AttributeError:\n            redirect(URL(\'error\',args=[\'2\']))\n        if len(tempdata)<3:\n            redirect(URL(\'error\',args=[2]))\n    elif request.args[1]==\'3\':    \n        try:\n            tempdata=minmonth(1,request.args[0],request.args[2])\n            pressdata=minmonth(2,request.args[0],request.args[2])\n            winddata=minmonth(3,request.args[0],request.args[2])\n            humiddata=minmonth(4,request.args[0],request.args[2])\n            raindata=minmonth(5,request.args[0],request.args[2])\n        except AttributeError:\n            redirect(URL(\'error\',args=[\'2\']))\n        if len(tempdata)<3:\n            redirect(URL(\'error\',args=[2]))\n    elif request.args[1]==\'4\':    \n        try:\n            tempdata=devmonth(1,request.args[0],request.args[2])\n            pressdata=devmonth(2,request.args[0],request.args[2])\n            winddata=devmonth(3,request.args[0],request.args[2])\n            humiddata=devmonth(4,request.args[0],request.args[2])\n            raindata=devmonth(5,request.args[0],request.args[2])\n        except AttributeError:\n            redirect(URL(\'error\',args=[\'2\']))\n        if len(tempdata)<3:\n            redirect(URL(\'error\',args=[2]))\n    elif request.args[1]==\'5\':    \n        try:\n            tempdata=medmonth(1,request.args[0],request.args[2])\n            pressdata=medmonth(2,request.args[0],request.args[2])\n            winddata=medmonth(3,request.args[0],request.args[2])\n            humiddata=medmonth(4,request.args[0],request.args[2])\n            raindata=medmonth(5,request.args[0],request.args[2])\n        except AttributeError:\n            redirect(URL(\'error\',args=[\'2\']))\n        if len(tempdata)<3:\n            redirect(URL(\'error\',args=[2]))\n    return locals()\n\n\'\'\'--------------------------------------------------------------------------------------------------------------------------------------------------------------------------------\'\'\'\n\n\'\'\'Calculators for Month\'\'\'\n\ndef meanmonth(a,b,c):\n    s=datakey(int(a))\n    k=dbselect(c)\n    sql="select avg(%s) from %s where month(datetime)=\'%s\' and year(datetime)=\'%s\' group by date(datetime);"%(s,k,str(b),c)\n    return select(sql)\n\ndef maxmonth(a,b,c):\n    s=datakey(int(a))\n    k=dbselect(c)\n    sql="select max(%s) from %s where month(datetime)=\'%s\' and year(datetime)=\'%s\' group by date(datetime);"%(s,k,str(b),c)\n    return select(sql)\n\ndef minmonth(a,b,c):\n    s=datakey(int(a))\n    k=dbselect(c)\n    sql="select min(%s) from %s where month(datetime)=\'%s\' and year(datetime)=\'%s\' group by date(datetime);"%(s,k,str(b),c)\n    return select(sql)\n\ndef medmonth(a,b,c):\n    s=datakey(int(a))\n    k=dbselect(c)\n    sql="select %s from %s where month(datetime)=\'%s\' and year(datetime)=\'%s\' and hour(datetime)=\'12\' group by date(datetime);"%(s,k,str(b),c)\n    return select(sql)\n\ndef devmonth(a,b,c):\n    s=datakey(int(a))\n    k=dbselect(c)\n    sql="select std(%s) from %s where month(datetime)=\'%s\' and year(datetime)=\'%s\' group by date(datetime);"%(s,k,str(b),c)\n    return select(sql)\n\n\'\'\'--------------------------------------------------------------------------------------------------------------------------------------------------------------------------------\'\'\'\n\n\'\'\'--------------------------------------------------------------------------------------------------------------------------------------------------------------------------------\'\'\'\n\n\'\'\'Main for Year\'\'\'\n\ndef year():\n    formy=SQLFORM.factory(Field("Year",requires=IS_IN_SET([(1,\'2013\'), (2,\'2014\'), (3,\'2015\')])),Field(\'Data\',requires=IS_IN_SET([(1,\'Mean\'), (2,\'Maximum\'), (3,\'Minimum\'), (4,\'Standard Deviation\'), (5,\'Median\')])))\n    formy.process(formname=\'formy\')\n    if formy.accepted:\n            redirect(URL(\'yearres\',args=[formy.vars.Data,yearkey2(int(formy.vars.Year))]))\n    return locals()\n\n\ndef yearres():\n    from operator import itemgetter\n    year=request.args[1]\n    s=labeldata(int(request.args[0]))\n    if request.args[0]==\'1\':\n        try:\n            tempdata=meanyear(1,request.args[1])\n            pressdata=meanyear(2,request.args[1])\n            winddata=meanyear(3,request.args[1])\n            humiddata=meanyear(4,request.args[1])\n            raindata=meanyear(5,request.args[1])\n        except AttributeError:\n            redirect(URL(\'error\',args=[3]))\n        if len(tempdata)<3:\n            redirect(URL(\'error\',args=[3]))\n    elif request.args[0]==\'2\':\n        try:\n            tempdata=maxyear(1,request.args[1])\n            pressdata=maxyear(2,request.args[1])\n            winddata=maxyear(3,request.args[1])\n            humiddata=maxyear(4,request.args[1])\n            raindata=maxyear(5,request.args[1])\n        except AttributeError:\n            redirect(URL(\'error\',args=[3]))\n        if len(tempdata)<3:\n            redirect(URL(\'error\',args=[3]))\n    elif request.args[0]==\'3\':\n        try:\n            tempdata=minyear(1,request.args[1])\n            pressdata=minyear(2,request.args[1])\n            winddata=minyear(3,request.args[1])\n            humiddata=minyear(4,request.args[1])\n            raindata=minyear(5,request.args[1])\n        except AttributeError:\n            redirect(URL(\'error\',args=[3]))\n        if len(tempdata)<3:\n            redirect(URL(\'error\',args=[3]))\n    elif request.args[0]==\'4\':\n        try:\n            tempdata=devyear(1,request.args[1])\n            pressdata=devyear(2,request.args[1])\n            winddata=devyear(3,request.args[1])\n            humiddata=devyear(4,request.args[1])\n            raindata=devyear(5,request.args[1])\n        except AttributeError:\n            redirect(URL(\'error\',args=[3]))\n        if len(tempdata)<3:\n            redirect(URL(\'error\',args=[3]))\n    elif request.args[0]==\'5\':\n        try:\n            tempdata=medyear(1,request.args[1])\n            pressdata=medyear(2,request.args[1])\n            winddata=medyear(3,request.args[1])\n            humiddata=medyear(4,request.args[1])\n            raindata=medyear(5,request.args[1])\n        except AttributeError:\n            redirect(URL(\'error\',args=[3]))\n        if len(tempdata)<3:\n            redirect(URL(\'error\',args=[3]))\n    return locals()\n\n\'\'\'--------------------------------------------------------------------------------------------------------------------------------------------------------------------------------\'\'\'\n\n\'\'\'Calculators for Year\'\'\'\n\ndef meanyear(a,b):\n    s=datakey(int(a))\n    k=dbselect(b)\n    sql="select avg(%s) from %s where year(datetime)=\'%s\' group by date(datetime);"%(s,k,b)\n    return select(sql)\n\ndef maxyear(a,b):\n    s=datakey(int(a))\n    k=dbselect(b)\n    sql="select max(%s) from %s where year(datetime)=\'%s\' group by date(datetime);"%(s,k,b)\n    return select(sql)\n\ndef minyear(a,b):\n    s=datakey(int(a))\n    k=dbselect(b)\n    sql="select min(%s) from %s where year(datetime)=\'%s\' group by date(datetime);"%(s,k,b)\n    return select(sql)\n\ndef medyear(a,b):\n    s=datakey(int(a))\n    k=dbselect(b)\n    sql="select %s from %s where hour(datetime)=\'12\' and year(datetime)=\'%s\'group by date(datetime);"%(s,k,b)\n    return select(sql)\n\ndef devyear(a,b):\n    s=datakey(int(a))\n    k=dbselect(b)\n    sql="select std(%s) from %s where year(datetime)=\'%s\'group by date(datetime);"%(s,k,b)\n    return select(sql)\n\'\'\'--------------------------------------------------------------------------------------------------------------------------------------------------------------------------------\'\'\'\n\'\'\'--------------------------------------------------------------------------------------------------------------------------------------------------------------------------------\'\'\'\n\nresponse._vars=response._caller(index)\n'
p7
sS'snapshot'
p8
(dp9
S'exception'
p10
(dp11
S'__hash__'
p12
S"<method-wrapper '__hash__' of exceptions.ImportError object>"
p13
sS'__setattr__'
p14
S"<method-wrapper '__setattr__' of exceptions.ImportError object>"
p15
sS'__reduce_ex__'
p16
S'<built-in method __reduce_ex__ of exceptions.ImportError object>'
p17
sS'__getslice__'
p18
S"<method-wrapper '__getslice__' of exceptions.ImportError object>"
p19
sS'__getitem__'
p20
S"<method-wrapper '__getitem__' of exceptions.ImportError object>"
p21
sS'__setstate__'
p22
S'<built-in method __setstate__ of exceptions.ImportError object>'
p23
sS'args'
p24
S'("Cannot import module \'applications.weather.modules.MySQLdb\'",)'
p25
sS'__reduce__'
p26
S'<built-in method __reduce__ of exceptions.ImportError object>'
p27
sS'__str__'
p28
S"<method-wrapper '__str__' of exceptions.ImportError object>"
p29
sS'__format__'
p30
S'<built-in method __format__ of exceptions.ImportError object>'
p31
sS'__getattribute__'
p32
S"<method-wrapper '__getattribute__' of exceptions.ImportError object>"
p33
sS'__class__'
p34
S"<type 'exceptions.ImportError'>"
p35
sS'__unicode__'
p36
S'<built-in method __unicode__ of exceptions.ImportError object>'
p37
sS'__delattr__'
p38
S"<method-wrapper '__delattr__' of exceptions.ImportError object>"
p39
sS'__subclasshook__'
p40
S'<built-in method __subclasshook__ of type object>'
p41
sS'__repr__'
p42
S"<method-wrapper '__repr__' of exceptions.ImportError object>"
p43
sS'__dict__'
p44
S'{}'
p45
sS'__sizeof__'
p46
S'<built-in method __sizeof__ of exceptions.ImportError object>'
p47
sS'__doc__'
p48
S'"Import can\'t find module, or can\'t find name in module."'
p49
sS'__init__'
p50
S"<method-wrapper '__init__' of exceptions.ImportError object>"
p51
sS'__new__'
p52
S'<built-in method __new__ of type object>'
p53
ssS'evalue'
p54
S"Cannot import module 'applications.weather.modules.MySQLdb'"
p55
sS'request'
p56
cgluon.html
XML_unpickle
p57
(S's\xd9[\x00\x00<div><table><tr><td style="font-weight:bold;vertical-align:top;">ajax</td><td style="vertical-align:top;">:</td><td><div>False</div></td></tr><tr><td style="font-weight:bold;vertical-align:top;">application</td><td style="vertical-align:top;">:</td><td><div>weather</div></td></tr><tr><td style="font-weight:bold;vertical-align:top;">args</td><td style="vertical-align:top;">:</td><td><div><table></table></div></td></tr><tr><td style="font-weight:bold;vertical-align:top;">cid</td><td style="vertical-align:top;">:</td><td><div>None</div></td></tr><tr><td style="font-weight:bold;vertical-align:top;">client</td><td style="vertical-align:top;">:</td><td><div>127.0.0.1</div></td></tr><tr><td style="font-weight:bold;vertical-align:top;">controller</td><td style="vertical-align:top;">:</td><td><div>default</div></td></tr><tr><td style="font-weight:bold;vertical-align:top;">cookies</td><td style="vertical-align:top;">:</td><td><div><table><tr><td style="font-weight:bold;vertical-align:top;">csrftoken</td><td style="vertical-align:top;">:</td><td><div>Q2hHiZtmoDlZguDce8FDTuVu9dh1OlegSCzDHhQVbBoQt3eTJc03GG5MQ3SROOH0<table><tr><td style="font-weight:bold;vertical-align:top;">comment</td><td style="vertical-align:top;">:</td><td><div></div></td></tr><tr><td style="font-weight:bold;vertical-align:top;">domain</td><td style="vertical-align:top;">:</td><td><div></div></td></tr><tr><td style="font-weight:bold;vertical-align:top;">expires</td><td style="vertical-align:top;">:</td><td><div></div></td></tr><tr><td style="font-weight:bold;vertical-align:top;">httponly</td><td style="vertical-align:top;">:</td><td><div></div></td></tr><tr><td style="font-weight:bold;vertical-align:top;">max-age</td><td style="vertical-align:top;">:</td><td><div></div></td></tr><tr><td style="font-weight:bold;vertical-align:top;">path</td><td style="vertical-align:top;">:</td><td><div></div></td></tr><tr><td style="font-weight:bold;vertical-align:top;">secure</td><td style="vertical-align:top;">:</td><td><div></div></td></tr><tr><td style="font-weight:bold;vertical-align:top;">version</td><td style="vertical-align:top;">:</td><td><div></div></td></tr></table></div></td></tr><tr><td style="font-weight:bold;vertical-align:top;">session_id_admin</td><td style="vertical-align:top;">:</td><td><div>127.0.0.1-2da34d9c-267d-4b51-b804-47d4b7796956<table><tr><td style="font-weight:bold;vertical-align:top;">comment</td><td style="vertical-align:top;">:</td><td><div></div></td></tr><tr><td style="font-weight:bold;vertical-align:top;">domain</td><td style="vertical-align:top;">:</td><td><div></div></td></tr><tr><td style="font-weight:bold;vertical-align:top;">expires</td><td style="vertical-align:top;">:</td><td><div></div></td></tr><tr><td style="font-weight:bold;vertical-align:top;">httponly</td><td style="vertical-align:top;">:</td><td><div></div></td></tr><tr><td style="font-weight:bold;vertical-align:top;">max-age</td><td style="vertical-align:top;">:</td><td><div></div></td></tr><tr><td style="font-weight:bold;vertical-align:top;">path</td><td style="vertical-align:top;">:</td><td><div></div></td></tr><tr><td style="font-weight:bold;vertical-align:top;">secure</td><td style="vertical-align:top;">:</td><td><div></div></td></tr><tr><td style="font-weight:bold;vertical-align:top;">version</td><td style="vertical-align:top;">:</td><td><div></div></td></tr></table></div></td></tr><tr><td style="font-weight:bold;vertical-align:top;">session_id_welcome</td><td style="vertical-align:top;">:</td><td><div>127.0.0.1-2dbd85c2-cc2f-47af-b885-4abc555cd283<table><tr><td style="font-weight:bold;vertical-align:top;">comment</td><td style="vertical-align:top;">:</td><td><div></div></td></tr><tr><td style="font-weight:bold;vertical-align:top;">domain</td><td style="vertical-align:top;">:</td><td><div></div></td></tr><tr><td style="font-weight:bold;vertical-align:top;">expires</td><td style="vertical-align:top;">:</td><td><div></div></td></tr><tr><td style="font-weight:bold;vertical-align:top;">httponly</td><td style="vertical-align:top;">:</td><td><div></div></td></tr><tr><td style="font-weight:bold;vertical-align:top;">max-age</td><td style="vertical-align:top;">:</td><td><div></div></td></tr><tr><td style="font-weight:bold;vertical-align:top;">path</td><td style="vertical-align:top;">:</td><td><div></div></td></tr><tr><td style="font-weight:bold;vertical-align:top;">secure</td><td style="vertical-align:top;">:</td><td><div></div></td></tr><tr><td style="font-weight:bold;vertical-align:top;">version</td><td style="vertical-align:top;">:</td><td><div></div></td></tr></table></div></td></tr></table></div></td></tr><tr><td style="font-weight:bold;vertical-align:top;">env</td><td style="vertical-align:top;">:</td><td><div><table><tr><td style="font-weight:bold;vertical-align:top;">HTTP_ACCEPT</td><td style="vertical-align:top;">:</td><td><div>text/html,application/xhtml+xml,application/xml;q=0.9,image/webp,*/*;q=0.8</div></td></tr><tr><td style="font-weight:bold;vertical-align:top;">HTTP_ACCEPT_ENCODING</td><td style="vertical-align:top;">:</td><td><div>gzip, deflate, sdch, br</div></td></tr><tr><td style="font-weight:bold;vertical-align:top;">HTTP_ACCEPT_LANGUAGE</td><td style="vertical-align:top;">:</td><td><div>en-US,en;q=0.8</div></td></tr><tr><td style="font-weight:bold;vertical-align:top;">HTTP_CONNECTION</td><td style="vertical-align:top;">:</td><td><div>keep-alive</div></td></tr><tr><td style="font-weight:bold;vertical-align:top;">HTTP_COOKIE</td><td style="vertical-align:top;">:</td><td><div>csrftoken=Q2hHiZtmoDlZguDce8FDTuVu9dh1OlegSCzDHhQVbBoQt3eTJc03GG5MQ3SROOH0; session_id_welcome=127.0.0.1-2dbd85c2-cc2f-47af-b885-4abc555cd283; session_id_admin=127.0.0.1-2da34d9c-267d-4b51-b804-47d4b7796956</div></td></tr><tr><td style="font-weight:bold;vertical-align:top;">HTTP_HOST</td><td style="vertical-align:top;">:</td><td><div>127.0.0.1:8000</div></td></tr><tr><td style="font-weight:bold;vertical-align:top;">HTTP_REFERER</td><td style="vertical-align:top;">:</td><td><div>http://127.0.0.1:8000/admin/default/site</div></td></tr><tr><td style="font-weight:bold;vertical-align:top;">HTTP_UPGRADE_INSECURE_REQUESTS</td><td style="vertical-align:top;">:</td><td><div>1</div></td></tr><tr><td style="font-weight:bold;vertical-align:top;">HTTP_USER_AGENT</td><td style="vertical-align:top;">:</td><td><div>Mozilla/5.0 (X11; Linux x86_64) AppleWebKit/537.36 (KHTML, like Gecko) Chrome/58.0.3029.81 Safari/537.36</div></td></tr><tr><td style="font-weight:bold;vertical-align:top;">PATH_INFO</td><td style="vertical-align:top;">:</td><td><div>/weather/default/index</div></td></tr><tr><td style="font-weight:bold;vertical-align:top;">QUERY_STRING</td><td style="vertical-align:top;">:</td><td><div></div></td></tr><tr><td style="font-weight:bold;vertical-align:top;">REMOTE_ADDR</td><td style="vertical-align:top;">:</td><td><div>127.0.0.1</div></td></tr><tr><td style="font-weight:bold;vertical-align:top;">REMOTE_PORT</td><td style="vertical-align:top;">:</td><td><div>55532</div></td></tr><tr><td style="font-weight:bold;vertical-align:top;">REQUEST_METHOD</td><td style="vertical-align:top;">:</td><td><div>GET</div></td></tr><tr><td style="font-weight:bold;vertical-align:top;">SCRIPT_NAME</td><td style="vertical-align:top;">:</td><td><div></div></td></tr><tr><td style="font-weight:bold;vertical-align:top;">SERVER_NAME</td><td style="vertical-align:top;">:</td><td><div>chrizandrPC</div></td></tr><tr><td style="font-weight:bold;vertical-align:top;">SERVER_PORT</td><td style="vertical-align:top;">:</td><td><div>8000</div></td></tr><tr><td style="font-weight:bold;vertical-align:top;">SERVER_PROTOCOL</td><td style="vertical-align:top;">:</td><td><div>HTTP/1.1</div></td></tr><tr><td style="font-weight:bold;vertical-align:top;">SERVER_SOFTWARE</td><td style="vertical-align:top;">:</td><td><div>Rocket 1.2.6</div></td></tr><tr><td style="font-weight:bold;vertical-align:top;">app_folders</td><td style="vertical-align:top;">:</td><td><div>set([&#x27;/home/chrizandr/Downloads/web2py/applications/welcome/&#x27;, &#x27;/home/chrizandr/Downloads/web2py/applications/admin/&#x27;, &#x27;/home/chrizandr/Downloads/web2py/applications/weather/&#x27;])</div></td></tr><tr><td style="font-weight:bold;vertical-align:top;">applications_parent</td><td style="vertical-align:top;">:</td><td><div>/home/chrizandr/Downloads/web2py</div></td></tr><tr><td style="font-weight:bold;vertical-align:top;">cmd_args</td><td style="vertical-align:top;">:</td><td><div><table></table></div></td></tr><tr><td style="font-weight:bold;vertical-align:top;">cmd_options</td><td style="vertical-align:top;">:</td><td><div>&lt;Values at 0x7f22b9f4c170: {&#x27;verbose&#x27;: False, &#x27;ip&#x27;: &#x27;127.0.0.1&#x27;, &#x27;debuglevel&#x27;: 30, &#x27;with_scheduler&#x27;: False, &#x27;shutdown_timeout&#x27;: 5, &#x27;taskbar&#x27;: False, &#x27;with_coverage&#x27;: False, &#x27;pid_filename&#x27;: &#x27;httpserver.pid&#x27;, &#x27;maxthreads&#x27;: None, &#x27;softcron&#x27;: False, &#x27;server_name&#x27;: &#x27;chrizandrPC&#x27;, &#x27;bpython&#x27;: False, &#x27;nogui&#x27;: False, &#x27;port&#x27;: 8000, &#x27;print_errors&#x27;: False, &#x27;extcron&#x27;: False, &#x27;runcron&#x27;: False, &#x27;run_system_tests&#x27;: False, &#x27;test&#x27;: None, &#x27;folder&#x27;: &#x27;/home/chrizandr/Downloads/web2py&#x27;, &#x27;config&#x27;: &#x27;&#x27;, &#x27;minthreads&#x27;: None, &#x27;shell&#x27;: None, &#x27;run&#x27;: &#x27;&#x27;, &#x27;log_filename&#x27;: &#x27;httpserver.log&#x27;, &#x27;profiler_dir&#x27;: None, &#x27;args&#x27;: [&#x27;&#x27;], &#x27;socket_timeout&#x27;: 5, &#x27;ssl_ca_certificate&#x27;: None, &#x27;scheduler&#x27;: None, &#x27;interfaces&#x27;: None, &#x27;ssl_private_key&#x27;: &#x27;&#x27;, &#x27;gae&#x27;: None, &#x27;password&#x27;: &#x27;******&#x27;, &#x27;request_queue_size&#x27;: 5, &#x27;ssl_certificate&#x27;: &#x27;&#x27;, &#x27;cronjob&#x27;: False, &#x27;numthreads&#x27;: None, &#x27;quiet&#x27;: False, &#x27;import_models&#x27;: False, &#x27;timeout&#x27;: 10, &#x27;plain&#x27;: False, &#x27;nobanner&#x27;: False}&gt;</div></td></tr><tr><td style="font-weight:bold;vertical-align:top;">db_sessions</td><td style="vertical-align:top;">:</td><td><div>set([])</div></td></tr><tr><td style="font-weight:bold;vertical-align:top;">debugging</td><td style="vertical-align:top;">:</td><td><div>False</div></td></tr><tr><td style="font-weight:bold;vertical-align:top;">gluon_parent</td><td style="vertical-align:top;">:</td><td><div>/home/chrizandr/Downloads/web2py</div></td></tr><tr><td style="font-weight:bold;vertical-align:top;">http_accept</td><td style="vertical-align:top;">:</td><td><div>text/html,application/xhtml+xml,application/xml;q=0.9,image/webp,*/*;q=0.8</div></td></tr><tr><td style="font-weight:bold;vertical-align:top;">http_accept_encoding</td><td style="vertical-align:top;">:</td><td><div>gzip, deflate, sdch, br</div></td></tr><tr><td style="font-weight:bold;vertical-align:top;">http_accept_language</td><td style="vertical-align:top;">:</td><td><div>en-US,en;q=0.8</div></td></tr><tr><td style="font-weight:bold;vertical-align:top;">http_connection</td><td style="vertical-align:top;">:</td><td><div>keep-alive</div></td></tr><tr><td style="font-weight:bold;vertical-align:top;">http_cookie</td><td style="vertical-align:top;">:</td><td><div>csrftoken=Q2hHiZtmoDlZguDce8FDTuVu9dh1OlegSCzDHhQVbBoQt3eTJc03GG5MQ3SROOH0; session_id_welcome=127.0.0.1-2dbd85c2-cc2f-47af-b885-4abc555cd283; session_id_admin=127.0.0.1-2da34d9c-267d-4b51-b804-47d4b7796956</div></td></tr><tr><td style="font-weight:bold;vertical-align:top;">http_host</td><td style="vertical-align:top;">:</td><td><div>127.0.0.1:8000</div></td></tr><tr><td style="font-weight:bold;vertical-align:top;">http_referer</td><td style="vertical-align:top;">:</td><td><div>http://127.0.0.1:8000/admin/default/site</div></td></tr><tr><td style="font-weight:bold;vertical-align:top;">http_upgrade_insecure_requests</td><td style="vertical-align:top;">:</td><td><div>1</div></td></tr><tr><td style="font-weight:bold;vertical-align:top;">http_user_agent</td><td style="vertical-align:top;">:</td><td><div>Mozilla/5.0 (X11; Linux x86_64) AppleWebKit/537.36 (KHTML, like Gecko) Chrome/58.0.3029.81 Safari/537.36</div></td></tr><tr><td style="font-weight:bold;vertical-align:top;">is_jython</td><td style="vertical-align:top;">:</td><td><div>False</div></td></tr><tr><td style="font-weight:bold;vertical-align:top;">is_pypy</td><td style="vertical-align:top;">:</td><td><div>False</div></td></tr><tr><td style="font-weight:bold;vertical-align:top;">is_source</td><td style="vertical-align:top;">:</td><td><div>True</div></td></tr><tr><td style="font-weight:bold;vertical-align:top;">local_hosts</td><td style="vertical-align:top;">:</td><td><div><table><tr><td><div>::1</div></td></tr><tr><td><div>127.0.1.1</div></td></tr><tr><td><div>::ffff:127.0.0.1</div></td></tr><tr><td><div>127.0.0.1</div></td></tr><tr><td><div>chrizandrPC</div></td></tr></table></div></td></tr><tr><td style="font-weight:bold;vertical-align:top;">path_info</td><td style="vertical-align:top;">:</td><td><div>/weather/default/index</div></td></tr><tr><td style="font-weight:bold;vertical-align:top;">query_string</td><td style="vertical-align:top;">:</td><td><div></div></td></tr><tr><td style="font-weight:bold;vertical-align:top;">remote_addr</td><td style="vertical-align:top;">:</td><td><div>127.0.0.1</div></td></tr><tr><td style="font-weight:bold;vertical-align:top;">remote_port</td><td style="vertical-align:top;">:</td><td><div>55532</div></td></tr><tr><td style="font-weight:bold;vertical-align:top;">request_method</td><td style="vertical-align:top;">:</td><td><div>GET</div></td></tr><tr><td style="font-weight:bold;vertical-align:top;">request_uri</td><td style="vertical-align:top;">:</td><td><div>/weather/default/index</div></td></tr><tr><td style="font-weight:bold;vertical-align:top;">script_name</td><td style="vertical-align:top;">:</td><td><div></div></td></tr><tr><td style="font-weight:bold;vertical-align:top;">server_name</td><td style="vertical-align:top;">:</td><td><div>chrizandrPC</div></td></tr><tr><td style="font-weight:bold;vertical-align:top;">server_port</td><td style="vertical-align:top;">:</td><td><div>8000</div></td></tr><tr><td style="font-weight:bold;vertical-align:top;">server_protocol</td><td style="vertical-align:top;">:</td><td><div>HTTP/1.1</div></td></tr><tr><td style="font-weight:bold;vertical-align:top;">server_software</td><td style="vertical-align:top;">:</td><td><div>Rocket 1.2.6</div></td></tr><tr><td style="font-weight:bold;vertical-align:top;">web2py_path</td><td style="vertical-align:top;">:</td><td><div>/home/chrizandr/Downloads/web2py</div></td></tr><tr><td style="font-weight:bold;vertical-align:top;">web2py_version</td><td style="vertical-align:top;">:</td><td><div>2.14.6-stable+timestamp.2016.05.10.00.21.47</div></td></tr><tr><td style="font-weight:bold;vertical-align:top;">wsgi.errors</td><td style="vertical-align:top;">:</td><td><div>&lt;open file &#x27;&lt;stderr&gt;&#x27;, mode &#x27;w&#x27; at 0x7f22bd17d1e0&gt;</div></td></tr><tr><td style="font-weight:bold;vertical-align:top;">wsgi.file_wrapper</td><td style="vertical-align:top;">:</td><td><div>&lt;class wsgiref.util.FileWrapper at 0x7f22b915b738&gt;</div></td></tr><tr><td style="font-weight:bold;vertical-align:top;">wsgi.input</td><td style="vertical-align:top;">:</td><td><div>&lt;socket._fileobject object at 0x7f22b8fbcdd0&gt;</div></td></tr><tr><td style="font-weight:bold;vertical-align:top;">wsgi.multiprocess</td><td style="vertical-align:top;">:</td><td><div>False</div></td></tr><tr><td style="font-weight:bold;vertical-align:top;">wsgi.multithread</td><td style="vertical-align:top;">:</td><td><div>True</div></td></tr><tr><td style="font-weight:bold;vertical-align:top;">wsgi.run_once</td><td style="vertical-align:top;">:</td><td><div>False</div></td></tr><tr><td style="font-weight:bold;vertical-align:top;">wsgi.url_scheme</td><td style="vertical-align:top;">:</td><td><div>http</div></td></tr><tr><td style="font-weight:bold;vertical-align:top;">wsgi.version</td><td style="vertical-align:top;">:</td><td><div><table><tr><td><div>1</div></td></tr><tr><td><div>0</div></td></tr></table></div></td></tr><tr><td style="font-weight:bold;vertical-align:top;">wsgi_errors</td><td style="vertical-align:top;">:</td><td><div>&lt;open file &#x27;&lt;stderr&gt;&#x27;, mode &#x27;w&#x27; at 0x7f22bd17d1e0&gt;</div></td></tr><tr><td style="font-weight:bold;vertical-align:top;">wsgi_file_wrapper</td><td style="vertical-align:top;">:</td><td><div>&lt;class wsgiref.util.FileWrapper at 0x7f22b915b738&gt;</div></td></tr><tr><td style="font-weight:bold;vertical-align:top;">wsgi_input</td><td style="vertical-align:top;">:</td><td><div>&lt;socket._fileobject object at 0x7f22b8fbcdd0&gt;</div></td></tr><tr><td style="font-weight:bold;vertical-align:top;">wsgi_multiprocess</td><td style="vertical-align:top;">:</td><td><div>False</div></td></tr><tr><td style="font-weight:bold;vertical-align:top;">wsgi_multithread</td><td style="vertical-align:top;">:</td><td><div>True</div></td></tr><tr><td style="font-weight:bold;vertical-align:top;">wsgi_run_once</td><td style="vertical-align:top;">:</td><td><div>False</div></td></tr><tr><td style="font-weight:bold;vertical-align:top;">wsgi_url_scheme</td><td style="vertical-align:top;">:</td><td><div>http</div></td></tr><tr><td style="font-weight:bold;vertical-align:top;">wsgi_version</td><td style="vertical-align:top;">:</td><td><div><table><tr><td><div>1</div></td></tr><tr><td><div>0</div></td></tr></table></div></td></tr></table></div></td></tr><tr><td style="font-weight:bold;vertical-align:top;">extension</td><td style="vertical-align:top;">:</td><td><div>html</div></td></tr><tr><td style="font-weight:bold;vertical-align:top;">folder</td><td style="vertical-align:top;">:</td><td><div>/home/chrizandr/Downloads/web2py/applications/weather/</div></td></tr><tr><td style="font-weight:bold;vertical-align:top;">function</td><td style="vertical-align:top;">:</td><td><div>index</div></td></tr><tr><td style="font-weight:bold;vertical-align:top;">global_settings</td><td style="vertical-align:top;">:</td><td><div><table><tr><td style="font-weight:bold;vertical-align:top;">app_folders</td><td style="vertical-align:top;">:</td><td><div>set([&#x27;/home/chrizandr/Downloads/web2py/applications/welcome/&#x27;, &#x27;/home/chrizandr/Downloads/web2py/applications/admin/&#x27;, &#x27;/home/chrizandr/Downloads/web2py/applications/weather/&#x27;])</div></td></tr><tr><td style="font-weight:bold;vertical-align:top;">applications_parent</td><td style="vertical-align:top;">:</td><td><div>/home/chrizandr/Downloads/web2py</div></td></tr><tr><td style="font-weight:bold;vertical-align:top;">cmd_args</td><td style="vertical-align:top;">:</td><td><div><table></table></div></td></tr><tr><td style="font-weight:bold;vertical-align:top;">cmd_options</td><td style="vertical-align:top;">:</td><td><div>&lt;Values at 0x7f22b9f4c170: {&#x27;verbose&#x27;: False, &#x27;ip&#x27;: &#x27;127.0.0.1&#x27;, &#x27;debuglevel&#x27;: 30, &#x27;with_scheduler&#x27;: False, &#x27;shutdown_timeout&#x27;: 5, &#x27;taskbar&#x27;: False, &#x27;with_coverage&#x27;: False, &#x27;pid_filename&#x27;: &#x27;httpserver.pid&#x27;, &#x27;maxthreads&#x27;: None, &#x27;softcron&#x27;: False, &#x27;server_name&#x27;: &#x27;chrizandrPC&#x27;, &#x27;bpython&#x27;: False, &#x27;nogui&#x27;: False, &#x27;port&#x27;: 8000, &#x27;print_errors&#x27;: False, &#x27;extcron&#x27;: False, &#x27;runcron&#x27;: False, &#x27;run_system_tests&#x27;: False, &#x27;test&#x27;: None, &#x27;folder&#x27;: &#x27;/home/chrizandr/Downloads/web2py&#x27;, &#x27;config&#x27;: &#x27;&#x27;, &#x27;minthreads&#x27;: None, &#x27;shell&#x27;: None, &#x27;run&#x27;: &#x27;&#x27;, &#x27;log_filename&#x27;: &#x27;httpserver.log&#x27;, &#x27;profiler_dir&#x27;: None, &#x27;args&#x27;: [&#x27;&#x27;], &#x27;socket_timeout&#x27;: 5, &#x27;ssl_ca_certificate&#x27;: None, &#x27;scheduler&#x27;: None, &#x27;interfaces&#x27;: None, &#x27;ssl_private_key&#x27;: &#x27;&#x27;, &#x27;gae&#x27;: None, &#x27;password&#x27;: &#x27;******&#x27;, &#x27;request_queue_size&#x27;: 5, &#x27;ssl_certificate&#x27;: &#x27;&#x27;, &#x27;cronjob&#x27;: False, &#x27;numthreads&#x27;: None, &#x27;quiet&#x27;: False, &#x27;import_models&#x27;: False, &#x27;timeout&#x27;: 10, &#x27;plain&#x27;: False, &#x27;nobanner&#x27;: False}&gt;</div></td></tr><tr><td style="font-weight:bold;vertical-align:top;">db_sessions</td><td style="vertical-align:top;">:</td><td><div>set([])</div></td></tr><tr><td style="font-weight:bold;vertical-align:top;">debugging</td><td style="vertical-align:top;">:</td><td><div>False</div></td></tr><tr><td style="font-weight:bold;vertical-align:top;">gluon_parent</td><td style="vertical-align:top;">:</td><td><div>/home/chrizandr/Downloads/web2py</div></td></tr><tr><td style="font-weight:bold;vertical-align:top;">is_jython</td><td style="vertical-align:top;">:</td><td><div>False</div></td></tr><tr><td style="font-weight:bold;vertical-align:top;">is_pypy</td><td style="vertical-align:top;">:</td><td><div>False</div></td></tr><tr><td style="font-weight:bold;vertical-align:top;">is_source</td><td style="vertical-align:top;">:</td><td><div>True</div></td></tr><tr><td style="font-weight:bold;vertical-align:top;">local_hosts</td><td style="vertical-align:top;">:</td><td><div><table><tr><td><div>::1</div></td></tr><tr><td><div>127.0.1.1</div></td></tr><tr><td><div>::ffff:127.0.0.1</div></td></tr><tr><td><div>127.0.0.1</div></td></tr><tr><td><div>chrizandrPC</div></td></tr></table></div></td></tr><tr><td style="font-weight:bold;vertical-align:top;">web2py_version</td><td style="vertical-align:top;">:</td><td><div>2.14.6-stable+timestamp.2016.05.10.00.21.47</div></td></tr></table></div></td></tr><tr><td style="font-weight:bold;vertical-align:top;">is_https</td><td style="vertical-align:top;">:</td><td><div>False</div></td></tr><tr><td style="font-weight:bold;vertical-align:top;">is_local</td><td style="vertical-align:top;">:</td><td><div>True</div></td></tr><tr><td style="font-weight:bold;vertical-align:top;">is_restful</td><td style="vertical-align:top;">:</td><td><div>False</div></td></tr><tr><td style="font-weight:bold;vertical-align:top;">is_scheduler</td><td style="vertical-align:top;">:</td><td><div>False</div></td></tr><tr><td style="font-weight:bold;vertical-align:top;">is_shell</td><td style="vertical-align:top;">:</td><td><div>False</div></td></tr><tr><td style="font-weight:bold;vertical-align:top;">now</td><td style="vertical-align:top;">:</td><td><div>datetime.datetime(2017, 4, 24, 19, 7, 47, 260032)</div></td></tr><tr><td style="font-weight:bold;vertical-align:top;">raw_args</td><td style="vertical-align:top;">:</td><td><div></div></td></tr><tr><td style="font-weight:bold;vertical-align:top;">raw_extension</td><td style="vertical-align:top;">:</td><td><div>None</div></td></tr><tr><td style="font-weight:bold;vertical-align:top;">url</td><td style="vertical-align:top;">:</td><td><div>/weather/default/index</div></td></tr><tr><td style="font-weight:bold;vertical-align:top;">utcnow</td><td style="vertical-align:top;">:</td><td><div>datetime.datetime(2017, 4, 24, 13, 37, 47, 260048)</div></td></tr><tr><td style="font-weight:bold;vertical-align:top;">wsgi</td><td style="vertical-align:top;">:</td><td><div>&lt;gluon.main.LazyWSGI object at 0x7f22ac726a50&gt;</div></td></tr></table></div>'
tRp58
sS'frames'
p59
(lp60
(dp61
S'file'
p62
S'/home/chrizandr/Downloads/web2py/gluon/restricted.py'
p63
sS'dump'
p64
(dp65
S'environment'
p66
S"{'A': <class 'gluon.html.A'>, 'ANY_OF': <class 'gluon.validators.ANY_OF'>, 'ASSIGNJS': <function ASSIGNJS>, 'AppConfig': <function AppConfig>, 'Auth': <class 'gluon.tools.Auth'>, 'B': <class 'gluon.html.B'>, 'BEAUTIFY': <class 'gluon.html.BEAUTIFY'>, 'BODY': <class 'gluon.html.BODY'>, 'BR': <class 'gluon.html.BR'>, 'BUTTON': <class 'gluon.html.BUTTON'>, ...}"
p67
sS'ccode'
p68
S'<code object <module> at 0x7f22ac6d0730, file "/...ications/weather/controllers/default.py", line 1>'
p69
ssS'lnum'
p70
I227
sS'lines'
p71
(dp72
I224
S'            ccode = code'
p73
sI225
S'        else:'
p74
sI226
S'            ccode = compile2(code, layer)'
p75
sI227
S'        exec ccode in environment'
p76
sI228
S'    except HTTP:'
p77
sI229
S'        raise'
p78
sI230
S'    except RestrictedError:'
p79
sI231
S'        # do not encapsulate (obfuscate) the original RestrictedError'
p80
sI222
S'    try:'
p81
sI223
S'        if isinstance(code, types.CodeType):'
p82
ssS'call'
p83
S'(code="\'\'\'---------------------------------------------...-----\'\'\'\\n\\nresponse._vars=response._caller(index)\\n", environment={\'A\': <class \'gluon.html.A\'>, \'ANY_OF\': <class \'gluon.validators.ANY_OF\'>, \'ASSIGNJS\': <function ASSIGNJS>, \'AppConfig\': <function AppConfig>, \'Auth\': <class \'gluon.tools.Auth\'>, \'B\': <class \'gluon.html.B\'>, \'BEAUTIFY\': <class \'gluon.html.BEAUTIFY\'>, \'BODY\': <class \'gluon.html.BODY\'>, \'BR\': <class \'gluon.html.BR\'>, \'BUTTON\': <class \'gluon.html.BUTTON\'>, ...}, layer=\'/home/chrizandr/Downloads/web2py/applications/weather/controllers/default.py\')'
p84
sS'func'
p85
S'restricted'
p86
sa(dp87
g62
S'/home/chrizandr/Downloads/web2py/applications/weather/controllers/default.py'
p88
sg64
(dp89
sg70
I537
sg71
(dp90
I526
S'    sql="select %s from %s where hour(datetime)=\'12\' and year(datetime)=\'%s\'group by date(datetime);"%(s,k,b)'
p91
sI527
S'    return select(sql)'
p92
sI528
S''
sI529
S'def devyear(a,b):'
p93
sI530
S'    s=datakey(int(a))'
p94
sI531
S'    k=dbselect(b)'
p95
sI532
S'    sql="select std(%s) from %s where year(datetime)=\'%s\'group by date(datetime);"%(s,k,b)'
p96
sI533
S'    return select(sql)'
p97
sI534
S"'''--------------------------------------------------------------------------------------------------------------------------------------------------------------------------------'''"
p98
sI535
S"'''--------------------------------------------------------------------------------------------------------------------------------------------------------------------------------'''"
p99
ssg83
S'()'
p100
sg85
S'<module>'
p101
sa(dp102
g62
S'/home/chrizandr/Downloads/web2py/gluon/globals.py'
p103
sg64
(dp104
S'self'
p105
S'undefined'
p106
sS'f'
S'<function index>'
p107
ssg70
I417
sg71
(dp108
I416
S'        self._vars = None'
p109
sI417
S'        self._caller = lambda f: f()'
p110
sI418
S'        self._view_environment = None'
p111
sI419
S'        self._custom_commit = None'
p112
sI420
S'        self._custom_rollback = None'
p113
sI421
S"        self.generic_patterns = ['*']"
p114
sI412
S"        self.flash = ''            # used by the default view layout"
p115
sI413
S'        self.meta = Storage()      # used by web2py_ajax.html'
p116
sI414
S'        self.menu = []             # used by the default view layout'
p117
sI415
S'        self.files = []            # used by web2py_ajax.html'
p118
ssg83
S'(f=<function index>)'
p119
sg85
S'<lambda>'
p120
sa(dp121
g62
S'/home/chrizandr/Downloads/web2py/applications/weather/controllers/default.py'
p122
sg64
(dp123
S'MySQLdb'
p124
g106
ssg70
I6
sg71
(dp125
I2
S''
sI3
S"'''Built in functions'''"
p126
sI4
S'def index():'
p127
sI5
S'    import datetime'
p128
sI6
S'    import MySQLdb'
p129
sI7
S'    y=str(datetime.datetime.now().year)'
p130
sI8
S"    sql='select * from %s where datetime = (select max(datetime) from %s);'%(dbselect(y),dbselect(y))"
p131
sI9
S'    db=MySQLdb.connect("localhost","root","iiits@123","weather")'
p132
sI10
S'    cursor=db.cursor()'
p133
sI11
S'    cursor.execute(sql)'
p134
ssg83
S'()'
p135
sg85
S'index'
p136
sa(dp137
g62
S'/home/chrizandr/Downloads/web2py/gluon/custom_import.py'
p138
sg64
(dp139
S'builtinstr'
p140
S"<type 'str'>"
p141
sS'builtinImportError'
p142
S"<type 'exceptions.ImportError'>"
p143
sS'e'
S"KeyError('applications.weather.modules.MySQLdb',)"
p144
ssg70
I89
sg71
(dp145
I84
S'                        new_mod = base_importer('
p146
sI85
S'                            modules_prefix, globals, locals, [itemname], level)'
p147
sI86
S'                        try:'
p148
sI87
S"                            result = result or sys.modules[modules_prefix+'.'+itemname]"
p149
sI88
S'                        except KeyError, e:'
p150
sI89
S"                            raise ImportError, 'Cannot import module %s' % str(e)"
p151
sI90
S'                        modules_prefix += "." + itemname'
p152
sI91
S'                    return result'
p153
sI92
S'                else:'
p154
sI93
S'                    # import like "from x import a, b, ..."'
p155
ssg83
S"(name='MySQLdb', globals={'A': <class 'gluon.html.A'>, 'ANY_OF': <class 'gluon.validators.ANY_OF'>, 'ASSIGNJS': <function ASSIGNJS>, 'AppConfig': <function AppConfig>, 'Auth': <class 'gluon.tools.Auth'>, 'B': <class 'gluon.html.B'>, 'BEAUTIFY': <class 'gluon.html.BEAUTIFY'>, 'BODY': <class 'gluon.html.BODY'>, 'BR': <class 'gluon.html.BR'>, 'BUTTON': <class 'gluon.html.BUTTON'>, ...}, locals={}, fromlist=[], level=-1)"
p156
sg85
S'custom_importer'
p157
sasS'pyver'
p158
S'Python 2.7.12: /usr/bin/python (prefix: /usr)'
p159
sS'session'
p160
g57
(S's\x1a\x00\x00\x00<div><table></table></div>'
tRp161
sS'etype'
p162
S"<type 'exceptions.ImportError'>"
p163
sS'date'
p164
S'Mon Apr 24 19:07:47 2017'
p165
sS'response'
p166
g57
(S's\xc9=\x00\x00<div><table><tr><td style="font-weight:bold;vertical-align:top;">body</td><td style="vertical-align:top;">:</td><td><div>&lt;cStringIO.StringO object at 0x7f22ac7031f0&gt;</div></td></tr><tr><td style="font-weight:bold;vertical-align:top;">cookies</td><td style="vertical-align:top;">:</td><td><div><table><tr><td style="font-weight:bold;vertical-align:top;">session_id_weather</td><td style="vertical-align:top;">:</td><td><div>127.0.0.1-b2282ff6-00d2-4e02-ac59-5208535e3e99<table><tr><td style="font-weight:bold;vertical-align:top;">comment</td><td style="vertical-align:top;">:</td><td><div></div></td></tr><tr><td style="font-weight:bold;vertical-align:top;">domain</td><td style="vertical-align:top;">:</td><td><div></div></td></tr><tr><td style="font-weight:bold;vertical-align:top;">expires</td><td style="vertical-align:top;">:</td><td><div></div></td></tr><tr><td style="font-weight:bold;vertical-align:top;">httponly</td><td style="vertical-align:top;">:</td><td><div></div></td></tr><tr><td style="font-weight:bold;vertical-align:top;">max-age</td><td style="vertical-align:top;">:</td><td><div></div></td></tr><tr><td style="font-weight:bold;vertical-align:top;">path</td><td style="vertical-align:top;">:</td><td><div>/</div></td></tr><tr><td style="font-weight:bold;vertical-align:top;">secure</td><td style="vertical-align:top;">:</td><td><div></div></td></tr><tr><td style="font-weight:bold;vertical-align:top;">version</td><td style="vertical-align:top;">:</td><td><div></div></td></tr></table></div></td></tr></table></div></td></tr><tr><td style="font-weight:bold;vertical-align:top;">delimiters</td><td style="vertical-align:top;">:</td><td><div><table><tr><td><div>{{</div></td></tr><tr><td><div>}}</div></td></tr></table></div></td></tr><tr><td style="font-weight:bold;vertical-align:top;">files</td><td style="vertical-align:top;">:</td><td><div><table></table></div></td></tr><tr><td style="font-weight:bold;vertical-align:top;">flash</td><td style="vertical-align:top;">:</td><td><div></div></td></tr><tr><td style="font-weight:bold;vertical-align:top;">form_label_separator</td><td style="vertical-align:top;">:</td><td><div></div></td></tr><tr><td style="font-weight:bold;vertical-align:top;">formstyle</td><td style="vertical-align:top;">:</td><td><div>bootstrap3_inline</div></td></tr><tr><td style="font-weight:bold;vertical-align:top;">generic_patterns</td><td style="vertical-align:top;">:</td><td><div><table><tr><td><div>*</div></td></tr></table></div></td></tr><tr><td style="font-weight:bold;vertical-align:top;">google_analytics_id</td><td style="vertical-align:top;">:</td><td><div>None</div></td></tr><tr><td style="font-weight:bold;vertical-align:top;">headers</td><td style="vertical-align:top;">:</td><td><div><table><tr><td style="font-weight:bold;vertical-align:top;">X-Powered-By</td><td style="vertical-align:top;">:</td><td><div>web2py</div></td></tr></table></div></td></tr><tr><td style="font-weight:bold;vertical-align:top;">logo</td><td style="vertical-align:top;">:</td><td><div><a class="navbar-brand" href="http://www.web2py.com/" id="web2py-logo"><b>web<span>2</span>py</b>&trade;&nbsp;</a></div></td></tr><tr><td style="font-weight:bold;vertical-align:top;">menu</td><td style="vertical-align:top;">:</td><td><div><table><tr><td><div><table><tr><td><div>Home</div></td></tr><tr><td><div>False</div></td></tr><tr><td><div>/weather/default/index</div></td></tr><tr><td><div><table></table></div></td></tr></table></div></td></tr><tr><td><div><table><tr><td><div>My Sites</div></td></tr><tr><td><div>False</div></td></tr><tr><td><div>/admin/default/site</div></td></tr></table></div></td></tr><tr><td><div><table><tr><td><div>This App</div></td></tr><tr><td><div>False</div></td></tr><tr><td><div>#</div></td></tr><tr><td><div><table><tr><td><div><table><tr><td><div>Design</div></td></tr><tr><td><div>False</div></td></tr><tr><td><div>/admin/default/design/weather</div></td></tr></table></div></td></tr><tr><td><div><li class="divider"></li></div></td></tr><tr><td><div><table><tr><td><div>Controller</div></td></tr><tr><td><div>False</div></td></tr><tr><td><div>/admin/default/edit/weather/controllers/default.py</div></td></tr></table></div></td></tr><tr><td><div><table><tr><td><div>View</div></td></tr><tr><td><div>False</div></td></tr><tr><td><div>/admin/default/edit/weather/views/default/index.html</div></td></tr></table></div></td></tr><tr><td><div><table><tr><td><div>DB Model</div></td></tr><tr><td><div>False</div></td></tr><tr><td><div>/admin/default/edit/weather/models/db.py</div></td></tr></table></div></td></tr><tr><td><div><table><tr><td><div>Menu Model</div></td></tr><tr><td><div>False</div></td></tr><tr><td><div>/admin/default/edit/weather/models/menu.py</div></td></tr></table></div></td></tr><tr><td><div><table><tr><td><div>Config.ini</div></td></tr><tr><td><div>False</div></td></tr><tr><td><div>/admin/default/edit/weather/private/appconfig.ini</div></td></tr></table></div></td></tr><tr><td><div><table><tr><td><div>Layout</div></td></tr><tr><td><div>False</div></td></tr><tr><td><div>/admin/default/edit/weather/views/layout.html</div></td></tr></table></div></td></tr><tr><td><div><table><tr><td><div>Stylesheet</div></td></tr><tr><td><div>False</div></td></tr><tr><td><div>/admin/default/edit/weather/static/css/web2py-bootstrap3.css</div></td></tr></table></div></td></tr><tr><td><div><table><tr><td><div>Database</div></td></tr><tr><td><div>False</div></td></tr><tr><td><div>/weather/appadmin/index</div></td></tr></table></div></td></tr><tr><td><div><table><tr><td><div>Errors</div></td></tr><tr><td><div>False</div></td></tr><tr><td><div>/admin/default/errors/weather</div></td></tr></table></div></td></tr><tr><td><div><table><tr><td><div>About</div></td></tr><tr><td><div>False</div></td></tr><tr><td><div>/admin/default/about/weather</div></td></tr></table></div></td></tr></table></div></td></tr></table></div></td></tr><tr><td><div><table><tr><td><div>web2py.com</div></td></tr><tr><td><div>False</div></td></tr><tr><td><div>#</div></td></tr><tr><td><div><table><tr><td><div><table><tr><td><div>Download</div></td></tr><tr><td><div>False</div></td></tr><tr><td><div>http://www.web2py.com/examples/default/download</div></td></tr></table></div></td></tr><tr><td><div><table><tr><td><div>Support</div></td></tr><tr><td><div>False</div></td></tr><tr><td><div>http://www.web2py.com/examples/default/support</div></td></tr></table></div></td></tr><tr><td><div><table><tr><td><div>Demo</div></td></tr><tr><td><div>False</div></td></tr><tr><td><div>http://web2py.com/demo_admin</div></td></tr></table></div></td></tr><tr><td><div><table><tr><td><div>Quick Examples</div></td></tr><tr><td><div>False</div></td></tr><tr><td><div>http://web2py.com/examples/default/examples</div></td></tr></table></div></td></tr><tr><td><div><table><tr><td><div>FAQ</div></td></tr><tr><td><div>False</div></td></tr><tr><td><div>http://web2py.com/AlterEgo</div></td></tr></table></div></td></tr><tr><td><div><table><tr><td><div>Videos</div></td></tr><tr><td><div>False</div></td></tr><tr><td><div>http://www.web2py.com/examples/default/videos/</div></td></tr></table></div></td></tr><tr><td><div><table><tr><td><div>Free Applications</div></td></tr><tr><td><div>False</div></td></tr><tr><td><div>http://web2py.com/appliances</div></td></tr></table></div></td></tr><tr><td><div><table><tr><td><div>Plugins</div></td></tr><tr><td><div>False</div></td></tr><tr><td><div>http://web2py.com/plugins</div></td></tr></table></div></td></tr><tr><td><div><table><tr><td><div>Recipes</div></td></tr><tr><td><div>False</div></td></tr><tr><td><div>http://web2pyslices.com/</div></td></tr></table></div></td></tr></table></div></td></tr></table></div></td></tr><tr><td><div><table><tr><td><div>Documentation</div></td></tr><tr><td><div>False</div></td></tr><tr><td><div>#</div></td></tr><tr><td><div><table><tr><td><div><table><tr><td><div>Online book</div></td></tr><tr><td><div>False</div></td></tr><tr><td><div>http://www.web2py.com/book</div></td></tr></table></div></td></tr><tr><td><div><li class="divider"></li></div></td></tr><tr><td><div><table><tr><td><div>Preface</div></td></tr><tr><td><div>False</div></td></tr><tr><td><div>http://www.web2py.com/book/default/chapter/00</div></td></tr></table></div></td></tr><tr><td><div><table><tr><td><div>Introduction</div></td></tr><tr><td><div>False</div></td></tr><tr><td><div>http://www.web2py.com/book/default/chapter/01</div></td></tr></table></div></td></tr><tr><td><div><table><tr><td><div>Python</div></td></tr><tr><td><div>False</div></td></tr><tr><td><div>http://www.web2py.com/book/default/chapter/02</div></td></tr></table></div></td></tr><tr><td><div><table><tr><td><div>Overview</div></td></tr><tr><td><div>False</div></td></tr><tr><td><div>http://www.web2py.com/book/default/chapter/03</div></td></tr></table></div></td></tr><tr><td><div><table><tr><td><div>The Core</div></td></tr><tr><td><div>False</div></td></tr><tr><td><div>http://www.web2py.com/book/default/chapter/04</div></td></tr></table></div></td></tr><tr><td><div><table><tr><td><div>The Views</div></td></tr><tr><td><div>False</div></td></tr><tr><td><div>http://www.web2py.com/book/default/chapter/05</div></td></tr></table></div></td></tr><tr><td><div><table><tr><td><div>Database</div></td></tr><tr><td><div>False</div></td></tr><tr><td><div>http://www.web2py.com/book/default/chapter/06</div></td></tr></table></div></td></tr><tr><td><div><table><tr><td><div>Forms and Validators</div></td></tr><tr><td><div>False</div></td></tr><tr><td><div>http://www.web2py.com/book/default/chapter/07</div></td></tr></table></div></td></tr><tr><td><div><table><tr><td><div>Email and SMS</div></td></tr><tr><td><div>False</div></td></tr><tr><td><div>http://www.web2py.com/book/default/chapter/08</div></td></tr></table></div></td></tr><tr><td><div><table><tr><td><div>Access Control</div></td></tr><tr><td><div>False</div></td></tr><tr><td><div>http://www.web2py.com/book/default/chapter/09</div></td></tr></table></div></td></tr><tr><td><div><table><tr><td><div>Services</div></td></tr><tr><td><div>False</div></td></tr><tr><td><div>http://www.web2py.com/book/default/chapter/10</div></td></tr></table></div></td></tr><tr><td><div><table><tr><td><div>Ajax Recipes</div></td></tr><tr><td><div>False</div></td></tr><tr><td><div>http://www.web2py.com/book/default/chapter/11</div></td></tr></table></div></td></tr><tr><td><div><table><tr><td><div>Components and Plugins</div></td></tr><tr><td><div>False</div></td></tr><tr><td><div>http://www.web2py.com/book/default/chapter/12</div></td></tr></table></div></td></tr><tr><td><div><table><tr><td><div>Deployment Recipes</div></td></tr><tr><td><div>False</div></td></tr><tr><td><div>http://www.web2py.com/book/default/chapter/13</div></td></tr></table></div></td></tr><tr><td><div><table><tr><td><div>Other Recipes</div></td></tr><tr><td><div>False</div></td></tr><tr><td><div>http://www.web2py.com/book/default/chapter/14</div></td></tr></table></div></td></tr><tr><td><div><table><tr><td><div>Helping web2py</div></td></tr><tr><td><div>False</div></td></tr><tr><td><div>http://www.web2py.com/book/default/chapter/15</div></td></tr></table></div></td></tr><tr><td><div><table><tr><td><div>Buy web2py\'s book</div></td></tr><tr><td><div>False</div></td></tr><tr><td><div>http://stores.lulu.com/web2py</div></td></tr></table></div></td></tr></table></div></td></tr></table></div></td></tr><tr><td><div><table><tr><td><div>Community</div></td></tr><tr><td><div>False</div></td></tr><tr><td><div>None</div></td></tr><tr><td><div><table><tr><td><div><table><tr><td><div>Groups</div></td></tr><tr><td><div>False</div></td></tr><tr><td><div>http://www.web2py.com/examples/default/usergroups</div></td></tr></table></div></td></tr><tr><td><div><table><tr><td><div>Twitter</div></td></tr><tr><td><div>False</div></td></tr><tr><td><div>http://twitter.com/web2py</div></td></tr></table></div></td></tr><tr><td><div><table><tr><td><div>Live Chat</div></td></tr><tr><td><div>False</div></td></tr><tr><td><div>http://webchat.freenode.net/?channels=web2py</div></td></tr></table></div></td></tr></table></div></td></tr></table></div></td></tr></table></div></td></tr><tr><td style="font-weight:bold;vertical-align:top;">meta</td><td style="vertical-align:top;">:</td><td><div><table><tr><td style="font-weight:bold;vertical-align:top;">author</td><td style="vertical-align:top;">:</td><td><div>Your Name &lt;you@example.com&gt;</div></td></tr><tr><td style="font-weight:bold;vertical-align:top;">description</td><td style="vertical-align:top;">:</td><td><div>a cool new app</div></td></tr><tr><td style="font-weight:bold;vertical-align:top;">generator</td><td style="vertical-align:top;">:</td><td><div>Web2py Web Framework</div></td></tr><tr><td style="font-weight:bold;vertical-align:top;">keywords</td><td style="vertical-align:top;">:</td><td><div>web2py, python, framework</div></td></tr></table></div></td></tr><tr><td style="font-weight:bold;vertical-align:top;">models_to_run</td><td style="vertical-align:top;">:</td><td><div><table><tr><td><div>^\\w+\\.py$</div></td></tr><tr><td><div>^default/\\w+\\.py$</div></td></tr><tr><td><div>^default/index/\\w+\\.py$</div></td></tr></table></div></td></tr><tr><td style="font-weight:bold;vertical-align:top;">postprocessing</td><td style="vertical-align:top;">:</td><td><div><table></table></div></td></tr><tr><td style="font-weight:bold;vertical-align:top;">session_client</td><td style="vertical-align:top;">:</td><td><div>127.0.0.1</div></td></tr><tr><td style="font-weight:bold;vertical-align:top;">session_cookie_compression_level</td><td style="vertical-align:top;">:</td><td><div>None</div></td></tr><tr><td style="font-weight:bold;vertical-align:top;">session_cookie_expires</td><td style="vertical-align:top;">:</td><td><div>None</div></td></tr><tr><td style="font-weight:bold;vertical-align:top;">session_data_name</td><td style="vertical-align:top;">:</td><td><div>session_data_weather</div></td></tr><tr><td style="font-weight:bold;vertical-align:top;">session_file</td><td style="vertical-align:top;">:</td><td><div>None</div></td></tr><tr><td style="font-weight:bold;vertical-align:top;">session_filename</td><td style="vertical-align:top;">:</td><td><div>/home/chrizandr/Downloads/web2py/applications/weather/sessions/127.0.0.1-b2282ff6-00d2-4e02-ac59-5208535e3e99</div></td></tr><tr><td style="font-weight:bold;vertical-align:top;">session_hash</td><td style="vertical-align:top;">:</td><td><div>c0762cbf4baf7f9af97c051e7fcb8083</div></td></tr><tr><td style="font-weight:bold;vertical-align:top;">session_id</td><td style="vertical-align:top;">:</td><td><div>127.0.0.1-b2282ff6-00d2-4e02-ac59-5208535e3e99</div></td></tr><tr><td style="font-weight:bold;vertical-align:top;">session_id_name</td><td style="vertical-align:top;">:</td><td><div>session_id_weather</div></td></tr><tr><td style="font-weight:bold;vertical-align:top;">session_masterapp</td><td style="vertical-align:top;">:</td><td><div>weather</div></td></tr><tr><td style="font-weight:bold;vertical-align:top;">session_new</td><td style="vertical-align:top;">:</td><td><div>True</div></td></tr><tr><td style="font-weight:bold;vertical-align:top;">session_storage_type</td><td style="vertical-align:top;">:</td><td><div>file</div></td></tr><tr><td style="font-weight:bold;vertical-align:top;">status</td><td style="vertical-align:top;">:</td><td><div>200</div></td></tr><tr><td style="font-weight:bold;vertical-align:top;">subtitle</td><td style="vertical-align:top;">:</td><td><div></div></td></tr><tr><td style="font-weight:bold;vertical-align:top;">title</td><td style="vertical-align:top;">:</td><td><div>Weather</div></td></tr><tr><td style="font-weight:bold;vertical-align:top;">view</td><td style="vertical-align:top;">:</td><td><div>default/index.html</div></td></tr></table></div>'
tRp167
sS'locals'
p168
(dp169
S'fromlist'
p170
S'[]'
p171
sS'e'
S"KeyError('applications.weather.modules.MySQLdb',)"
p172
sS'name'
p173
S"'MySQLdb'"
p174
sS'level'
p175
S'-1'
p176
sS'itemname'
p177
S"'MySQLdb'"
p178
sS'e3'
p179
S"ImportError('No module named MySQLdb',)"
p180
sS'base_importer'
p181
S'<built-in function __import__>'
p182
sS'globals'
p183
S"{'A': <class 'gluon.html.A'>, 'ANY_OF': <class 'gluon.validators.ANY_OF'>, 'ASSIGNJS': <function ASSIGNJS>, 'AppConfig': <function AppConfig>, 'Auth': <class 'gluon.tools.Auth'>, 'B': <class 'gluon.html.B'>, 'BEAUTIFY': <class 'gluon.html.BEAUTIFY'>, 'BODY': <class 'gluon.html.BODY'>, 'BR': <class 'gluon.html.BR'>, 'BUTTON': <class 'gluon.html.BUTTON'>, ...}"
p184
sS'result'
p185
S'None'
p186
sS'items'
p187
S"['', 'home', 'chrizandr', 'Downloads', 'web2py', 'applications', 'weather']"
p188
sS'modules_prefix'
p189
S"'applications.weather.modules'"
p190
sS'new_mod'
p191
S"<module 'applications.weather.modules' from 'applications/weather/modules/__init__.pyc'>"
p192
sS'e1'
p193
S'ImportError("Cannot import module \'applications.weather.modules.MySQLdb\'",)'
p194
sS'import_tb'
p195
S'None'
p196
sg168
g45
sS'oname'
p197
S"'MySQLdb'"
p198
sssS'traceback'
p199
S'Traceback (most recent call last):\n  File "/home/chrizandr/Downloads/web2py/gluon/restricted.py", line 227, in restricted\n    exec ccode in environment\n  File "/home/chrizandr/Downloads/web2py/applications/weather/controllers/default.py", line 537, in <module>\n  File "/home/chrizandr/Downloads/web2py/gluon/globals.py", line 417, in <lambda>\n    self._caller = lambda f: f()\n  File "/home/chrizandr/Downloads/web2py/applications/weather/controllers/default.py", line 6, in index\n    import MySQLdb\n  File "/home/chrizandr/Downloads/web2py/gluon/custom_import.py", line 89, in custom_importer\n    raise ImportError, \'Cannot import module %s\' % str(e)\nImportError: Cannot import module \'applications.weather.modules.MySQLdb\'\n'
p200
s.